target datalayout = "e-m:e-p270:32:32-p271:32:32-p272:64:64-i64:64-i128:128-f80:128-n8:16:32:64-S128"
target triple = "x86_64-pc-linux-gnu"

%class.btUnionFind = type { %class.btAlignedObjectArray }
%class.btAlignedObjectArray = type <{ [4 x i8], i32, i32, [4 x i8], ptr, i8, [7 x i8] }>
%struct.btElement = type { i32, i32 }
%class.btUnionFindElementSortPredicate = type { i8 }

; Function Attrs: mustprogress uwtable
define linkonce_odr dso_local void @_ZN20btAlignedObjectArrayI9btElementE9quickSortI31btUnionFindElementSortPredicateEEvRKT_(ptr noundef nonnull align 8 dereferenceable(25) %0, ptr noundef nonnull align 1 dereferenceable(1) %1) #2 comdat align 2 {
  %3 = alloca ptr, align 8
  %4 = alloca ptr, align 8
  store ptr %0, ptr %3, align 8, !tbaa !14
  store ptr %1, ptr %4, align 8, !tbaa !33
  %5 = load ptr, ptr %3, align 8
  %6 = call noundef i32 @_ZNK20btAlignedObjectArrayI9btElementE4sizeEv(ptr noundef nonnull align 8 dereferenceable(25) %5)
  %7 = icmp sgt i32 %6, 1
  br i1 %7, label %8, label %12

8:                                                ; preds = %2
  %9 = load ptr, ptr %4, align 8, !tbaa !33
  %10 = call noundef i32 @_ZNK20btAlignedObjectArrayI9btElementE4sizeEv(ptr noundef nonnull align 8 dereferenceable(25) %5)
  %11 = sub nsw i32 %10, 1
  call void @_ZN20btAlignedObjectArrayI9btElementE17quickSortInternalI31btUnionFindElementSortPredicateEEvRKT_ii(ptr noundef nonnull align 8 dereferenceable(25) %5, ptr noundef nonnull align 1 dereferenceable(1) %9, i32 noundef 0, i32 noundef %11)
  br label %12

12:                                               ; preds = %8, %2
  ret void
}

; Function Attrs: inlinehint mustprogress nounwind uwtable
define linkonce_odr dso_local noundef nonnull align 4 dereferenceable(8) ptr @_ZN20btAlignedObjectArrayI9btElementEixEi(ptr noundef nonnull align 8 dereferenceable(25) %0, i32 noundef %1) #7 comdat align 2 {
  %3 = alloca ptr, align 8
  %4 = alloca i32, align 4
  store ptr %0, ptr %3, align 8, !tbaa !14
  store i32 %1, ptr %4, align 4, !tbaa !9
  %5 = load ptr, ptr %3, align 8
  %6 = getelementptr inbounds nuw %class.btAlignedObjectArray, ptr %5, i32 0, i32 4
  %7 = load ptr, ptr %6, align 8, !tbaa !20
  %8 = load i32, ptr %4, align 4, !tbaa !9
  %9 = sext i32 %8 to i64
  %10 = getelementptr inbounds %struct.btElement, ptr %7, i64 %9
  ret ptr %10
}

; Function Attrs: mustprogress uwtable
define linkonce_odr dso_local noundef i32 @_ZN11btUnionFind4findEi(ptr noundef nonnull align 8 dereferenceable(32) %0, i32 noundef %1) #2 comdat align 2 {
  %3 = alloca ptr, align 8
  %4 = alloca i32, align 4
  %5 = alloca ptr, align 8
  store ptr %0, ptr %3, align 8, !tbaa !12
  store i32 %1, ptr %4, align 4, !tbaa !9
  %6 = load ptr, ptr %3, align 8
  br label %7

7:                                                ; preds = %15, %2
  %8 = load i32, ptr %4, align 4, !tbaa !9
  %9 = getelementptr inbounds nuw %class.btUnionFind, ptr %6, i32 0, i32 0
  %10 = load i32, ptr %4, align 4, !tbaa !9
  %11 = call noundef nonnull align 4 dereferenceable(8) ptr @_ZN20btAlignedObjectArrayI9btElementEixEi(ptr noundef nonnull align 8 dereferenceable(25) %9, i32 noundef %10)
  %12 = getelementptr inbounds nuw %struct.btElement, ptr %11, i32 0, i32 0
  %13 = load i32, ptr %12, align 4, !tbaa !27
  %14 = icmp ne i32 %8, %13
  br i1 %14, label %15, label %33

15:                                               ; preds = %7
  call void @llvm.lifetime.start.p0(i64 8, ptr %5) #10
  %16 = getelementptr inbounds nuw %class.btUnionFind, ptr %6, i32 0, i32 0
  %17 = getelementptr inbounds nuw %class.btUnionFind, ptr %6, i32 0, i32 0
  %18 = load i32, ptr %4, align 4, !tbaa !9
  %19 = call noundef nonnull align 4 dereferenceable(8) ptr @_ZN20btAlignedObjectArrayI9btElementEixEi(ptr noundef nonnull align 8 dereferenceable(25) %17, i32 noundef %18)
  %20 = getelementptr inbounds nuw %struct.btElement, ptr %19, i32 0, i32 0
  %21 = load i32, ptr %20, align 4, !tbaa !27
  %22 = call noundef nonnull align 4 dereferenceable(8) ptr @_ZN20btAlignedObjectArrayI9btElementEixEi(ptr noundef nonnull align 8 dereferenceable(25) %16, i32 noundef %21)
  store ptr %22, ptr %5, align 8, !tbaa !16
  %23 = load ptr, ptr %5, align 8, !tbaa !16
  %24 = getelementptr inbounds nuw %struct.btElement, ptr %23, i32 0, i32 0
  %25 = load i32, ptr %24, align 4, !tbaa !27
  %26 = getelementptr inbounds nuw %class.btUnionFind, ptr %6, i32 0, i32 0
  %27 = load i32, ptr %4, align 4, !tbaa !9
  %28 = call noundef nonnull align 4 dereferenceable(8) ptr @_ZN20btAlignedObjectArrayI9btElementEixEi(ptr noundef nonnull align 8 dereferenceable(25) %26, i32 noundef %27)
  %29 = getelementptr inbounds nuw %struct.btElement, ptr %28, i32 0, i32 0
  store i32 %25, ptr %29, align 4, !tbaa !27
  %30 = load ptr, ptr %5, align 8, !tbaa !16
  %31 = getelementptr inbounds nuw %struct.btElement, ptr %30, i32 0, i32 0
  %32 = load i32, ptr %31, align 4, !tbaa !27
  store i32 %32, ptr %4, align 4, !tbaa !9
  call void @llvm.lifetime.end.p0(i64 8, ptr %5) #10
  br label %7, !llvm.loop !32

33:                                               ; preds = %7
  %34 = load i32, ptr %4, align 4, !tbaa !9
  ret i32 %34
}

; Function Attrs: inlinehint mustprogress nounwind uwtable
define linkonce_odr dso_local noundef i32 @_ZNK20btAlignedObjectArrayI9btElementE4sizeEv(ptr noundef nonnull align 8 dereferenceable(25) %0) #7 comdat align 2 {
  %2 = alloca ptr, align 8
  store ptr %0, ptr %2, align 8, !tbaa !14
  %3 = load ptr, ptr %2, align 8
  %4 = getelementptr inbounds nuw %class.btAlignedObjectArray, ptr %3, i32 0, i32 1
  %5 = load i32, ptr %4, align 4, !tbaa !26
  ret i32 %5
}

; Function Attrs: mustprogress uwtable
define dso_local void @_ZN11btUnionFind11sortIslandsEv(ptr noundef nonnull align 8 dereferenceable(32) %0) #2 align 2 {
  %2 = alloca ptr, align 8
  %3 = alloca i32, align 4
  %4 = alloca i32, align 4
  %5 = alloca %class.btUnionFindElementSortPredicate, align 1
  store ptr %0, ptr %2, align 8, !tbaa !12
  %6 = load ptr, ptr %2, align 8
  call void @llvm.lifetime.start.p0(i64 4, ptr %3) #10
  %7 = getelementptr inbounds nuw %class.btUnionFind, ptr %6, i32 0, i32 0
  %8 = call noundef i32 @_ZNK20btAlignedObjectArrayI9btElementE4sizeEv(ptr noundef nonnull align 8 dereferenceable(25) %7)
  store i32 %8, ptr %3, align 4, !tbaa !9
  call void @llvm.lifetime.start.p0(i64 4, ptr %4) #10
  store i32 0, ptr %4, align 4, !tbaa !9
  br label %9

9:                                                ; preds = %21, %1
  %10 = load i32, ptr %4, align 4, !tbaa !9
  %11 = load i32, ptr %3, align 4, !tbaa !9
  %12 = icmp slt i32 %10, %11
  br i1 %12, label %14, label %13

13:                                               ; preds = %9
  call void @llvm.lifetime.end.p0(i64 4, ptr %4) #10
  br label %24

14:                                               ; preds = %9
  %15 = load i32, ptr %4, align 4, !tbaa !9
  %16 = call noundef i32 @_ZN11btUnionFind4findEi(ptr noundef nonnull align 8 dereferenceable(32) %6, i32 noundef %15)
  %17 = getelementptr inbounds nuw %class.btUnionFind, ptr %6, i32 0, i32 0
  %18 = load i32, ptr %4, align 4, !tbaa !9
  %19 = call noundef nonnull align 4 dereferenceable(8) ptr @_ZN20btAlignedObjectArrayI9btElementEixEi(ptr noundef nonnull align 8 dereferenceable(25) %17, i32 noundef %18)
  %20 = getelementptr inbounds nuw %struct.btElement, ptr %19, i32 0, i32 0
  store i32 %16, ptr %20, align 4, !tbaa !27
  br label %21

21:                                               ; preds = %14
  %22 = load i32, ptr %4, align 4, !tbaa !9
  %23 = add nsw i32 %22, 1
  store i32 %23, ptr %4, align 4, !tbaa !9
  br label %9, !llvm.loop !31

24:                                               ; preds = %13
  %25 = getelementptr inbounds nuw %class.btUnionFind, ptr %6, i32 0, i32 0
  call void @llvm.lifetime.start.p0(i64 1, ptr %5) #10
  call void @_ZN20btAlignedObjectArrayI9btElementE9quickSortI31btUnionFindElementSortPredicateEEvRKT_(ptr noundef nonnull align 8 dereferenceable(25) %25, ptr noundef nonnull align 1 dereferenceable(1) %5)
  call void @llvm.lifetime.end.p0(i64 1, ptr %5) #10
  call void @llvm.lifetime.end.p0(i64 4, ptr %3) #10
  ret void
}