; Function Attrs: mustprogress uwtable
define dso_local void @_ZN11btUnionFind11sortIslandsEv(ptr noundef nonnull align 8 dereferenceable(32) %0) local_unnamed_addr #1 align 2 {
  %2 = alloca %class.btUnionFindElementSortPredicate, align 1
  %3 = getelementptr inbounds nuw i8, ptr %0, i64 4
  %4 = load i32, ptr %3, align 4, !tbaa !16
  %5 = icmp sgt i32 %4, 0
  br i1 %5, label %.lr.ph, label %._crit_edge.thread

._crit_edge.thread:                               ; preds = %1
  call void @llvm.lifetime.start.p0(i64 1, ptr nonnull %2) #8
  br label %_ZN20btAlignedObjectArrayI9btElementE9quickSortI31btUnionFindElementSortPredicateEEvRKT_.exit

.lr.ph:                                           ; preds = %1
  %6 = getelementptr inbounds nuw i8, ptr %0, i64 16
  %7 = load ptr, ptr %6, align 8, !tbaa !4
  %wide.trip.count = zext nneg i32 %4 to i64
  br label %10

._crit_edge:                                      ; preds = %_ZN11btUnionFind4findEi.exit
  call void @llvm.lifetime.start.p0(i64 1, ptr nonnull %2) #8
  %.not = icmp eq i32 %4, 1
  br i1 %.not, label %_ZN20btAlignedObjectArrayI9btElementE9quickSortI31btUnionFindElementSortPredicateEEvRKT_.exit, label %8

8:                                                ; preds = %._crit_edge
  %9 = add nsw i32 %4, -1
  call void @_ZN20btAlignedObjectArrayI9btElementE17quickSortInternalI31btUnionFindElementSortPredicateEEvRKT_ii(ptr noundef nonnull align 8 dereferenceable(25) %0, ptr noundef nonnull align 1 dereferenceable(1) %2, i32 noundef 0, i32 noundef %9)
  br label %_ZN20btAlignedObjectArrayI9btElementE9quickSortI31btUnionFindElementSortPredicateEEvRKT_.exit

_ZN20btAlignedObjectArrayI9btElementE9quickSortI31btUnionFindElementSortPredicateEEvRKT_.exit: ; preds = %._crit_edge.thread, %._crit_edge, %8
  call void @llvm.lifetime.end.p0(i64 1, ptr nonnull %2) #8
  ret void

10:                                               ; preds = %.lr.ph, %_ZN11btUnionFind4findEi.exit
  %indvars.iv = phi i64 [ 0, %.lr.ph ], [ %indvars.iv.next, %_ZN11btUnionFind4findEi.exit ]
  %11 = getelementptr inbounds nuw %struct.btElement, ptr %7, i64 %indvars.iv
  %12 = load i32, ptr %11, align 4, !tbaa !21
  %13 = zext i32 %12 to i64
  %.not7.i = icmp eq i64 %indvars.iv, %13
  %14 = trunc nuw nsw i64 %indvars.iv to i32
  br i1 %.not7.i, label %_ZN11btUnionFind4findEi.exit, label %.lr.ph.i

.lr.ph.i:                                         ; preds = %10, %.lr.ph.i
  %15 = phi i32 [ %22, %.lr.ph.i ], [ %12, %10 ]
  %16 = phi ptr [ %21, %.lr.ph.i ], [ %11, %10 ]
  %17 = sext i32 %15 to i64
  %18 = getelementptr inbounds %struct.btElement, ptr %7, i64 %17
  %19 = load i32, ptr %18, align 4, !tbaa !21
  store i32 %19, ptr %16, align 4, !tbaa !21
  %20 = sext i32 %19 to i64
  %21 = getelementptr inbounds %struct.btElement, ptr %7, i64 %20
  %22 = load i32, ptr %21, align 4, !tbaa !21
  %.not.i = icmp eq i32 %19, %22
  br i1 %.not.i, label %_ZN11btUnionFind4findEi.exit, label %.lr.ph.i, !llvm.loop !25

_ZN11btUnionFind4findEi.exit:                     ; preds = %.lr.ph.i, %10
  %.0.lcssa.i = phi i32 [ %14, %10 ], [ %19, %.lr.ph.i ]
  store i32 %.0.lcssa.i, ptr %11, align 4, !tbaa !21
  %indvars.iv.next = add nuw nsw i64 %indvars.iv, 1
  %exitcond.not = icmp eq i64 %indvars.iv.next, %wide.trip.count
  br i1 %exitcond.not, label %._crit_edge, label %10, !llvm.loop !26
}